target datalayout = "e-m:e-p270:32:32-p271:32:32-p272:64:64-i64:64-i128:128-f80:128-n8:16:32:64-S128"
target triple = "x86_64-pc-linux-gnu"

%class.anon = type { i8 }
%"class.std::filesystem::__cxx11::path" = type { %"class.std::__cxx11::basic_string", %"struct.std::filesystem::__cxx11::path::_List" }
%"class.std::__cxx11::basic_string" = type { %"struct.std::__cxx11::basic_string<char>::_Alloc_hider", i64, %union.anon }
%"struct.std::__cxx11::basic_string<char>::_Alloc_hider" = type { ptr }
%union.anon = type { i64, [8 x i8] }
%"struct.std::filesystem::__cxx11::path::_List" = type { %"class.std::unique_ptr" }
%"class.std::unique_ptr" = type { %"struct.std::__uniq_ptr_data" }
%"struct.std::__uniq_ptr_data" = type { %"class.std::__uniq_ptr_impl" }
%"class.std::__uniq_ptr_impl" = type { %"class.std::tuple" }
%"class.std::tuple" = type { %"struct.std::_Tuple_impl" }
%"struct.std::_Tuple_impl" = type { %"struct.std::_Head_base.1" }
%"struct.std::_Head_base.1" = type { ptr }
%"class.gmx::LogWriteHelper" = type { ptr }
%"class.gmx::LogEntryWriter" = type { %"struct.gmx::LogEntry" }
%"struct.gmx::LogEntry" = type <{ %"class.std::__cxx11::basic_string", i8, [7 x i8] }>
%"class.gmx::MDLogger" = type { %"class.gmx::LogLevelHelper", %"class.gmx::LogLevelHelper", %"class.gmx::LogLevelHelper", %"class.gmx::LogLevelHelper", %"class.gmx::LogLevelHelper" }
%"class.gmx::LogLevelHelper" = type { ptr }

@.str = private unnamed_addr constant [16 x i8] c"OMP_NUM_THREADS\00", align 1
@.str.1 = private unnamed_addr constant [3 x i8] c"%d\00", align 1
@.str.2 = private unnamed_addr constant [132 x i8] c"generated/home/dtcxzyw/WorkSpace/Projects/compilers/llvm-opt-benchmark/bench/gromacs/gromacs/src/gromacs/mdlib/gmx_omp_nthreads.cpp\00", align 1
@.str.3 = private unnamed_addr constant [33 x i8] c"OMP_NUM_THREADS is invalid: '%s'\00", align 1
@.str.4 = private unnamed_addr constant [179 x i8] c"Environment variable OMP_NUM_THREADS (%d) and the number of threads requested on the command line (%d) have different values. Either omit one, or set them both to the same value.\00", align 1
@.str.5 = private unnamed_addr constant [88 x i8] c"\0AThe number of OpenMP threads was set by environment variable OMP_NUM_THREADS to %d%s\0A\0A\00", align 1
@.str.6 = private unnamed_addr constant [49 x i8] c" (and the command-line setting agreed with that)\00", align 1
@.str.7 = private unnamed_addr constant [1 x i8] zeroinitializer, align 1
@.str.8 = private unnamed_addr constant [3 x i8] c"%s\00", align 1
@debug = external global ptr, align 8
@.str.9 = private unnamed_addr constant [13 x i8] c"nthreads_omp\00", align 1
@.str.10 = private unnamed_addr constant [40 x i8] c"nthreads_omp must be a non-NULL pointer\00", align 1
@"__PRETTY_FUNCTION__._ZZ25gmx_omp_nthreads_read_envRKN3gmx8MDLoggerEPiENK3$_0clEv" = private unnamed_addr constant [100 x i8] c"auto gmx_omp_nthreads_read_env(const gmx::MDLogger &, int *)::(anonymous class)::operator()() const\00", align 1

; Function Attrs: mustprogress nounwind uwtable
define linkonce_odr void @_ZN3gmx8LogEntryD2Ev(ptr noundef nonnull align 8 dereferenceable(33) %0) unnamed_addr #3 comdat align 2 {
  %2 = alloca ptr, align 8
  store ptr %0, ptr %2, align 8
  %3 = load ptr, ptr %2, align 8
  %4 = getelementptr inbounds %"struct.gmx::LogEntry", ptr %3, i32 0, i32 0
  call void @_ZNSt7__cxx1112basic_stringIcSt11char_traitsIcESaIcEED1Ev(ptr noundef nonnull align 8 dereferenceable(32) %4) #9
  ret void
}

; Function Attrs: mustprogress nounwind uwtable
define linkonce_odr void @_ZN3gmx8LogEntryC2Ev(ptr noundef nonnull align 8 dereferenceable(33) %0) unnamed_addr #3 comdat align 2 {
  %2 = alloca ptr, align 8
  store ptr %0, ptr %2, align 8
  %3 = load ptr, ptr %2, align 8
  %4 = getelementptr inbounds %"struct.gmx::LogEntry", ptr %3, i32 0, i32 0
  call void @_ZNSt7__cxx1112basic_stringIcSt11char_traitsIcESaIcEEC1Ev(ptr noundef nonnull align 8 dereferenceable(32) %4) #9
  %5 = getelementptr inbounds %"struct.gmx::LogEntry", ptr %3, i32 0, i32 1
  store i8 0, ptr %5, align 8
  ret void
}

; Function Attrs: mustprogress nounwind uwtable
define linkonce_odr void @_ZN3gmx14LogWriteHelperC2EPNS_10ILogTargetE(ptr noundef nonnull align 8 dereferenceable(8) %0, ptr noundef %1) unnamed_addr #3 comdat align 2 {
  %3 = alloca ptr, align 8
  %4 = alloca ptr, align 8
  store ptr %0, ptr %3, align 8
  store ptr %1, ptr %4, align 8
  %5 = load ptr, ptr %3, align 8
  %6 = getelementptr inbounds %"class.gmx::LogWriteHelper", ptr %5, i32 0, i32 0
  %7 = load ptr, ptr %4, align 8
  store ptr %7, ptr %6, align 8
  ret void
}

; Function Attrs: mustprogress nounwind uwtable
define linkonce_odr void @_ZN3gmx14LogEntryWriterD2Ev(ptr noundef nonnull align 8 dereferenceable(40) %0) unnamed_addr #3 comdat align 2 {
  %2 = alloca ptr, align 8
  store ptr %0, ptr %2, align 8
  %3 = load ptr, ptr %2, align 8
  %4 = getelementptr inbounds %"class.gmx::LogEntryWriter", ptr %3, i32 0, i32 0
  call void @_ZN3gmx8LogEntryD2Ev(ptr noundef nonnull align 8 dereferenceable(33) %4) #9
  ret void
}

; Function Attrs: mustprogress uwtable
define linkonce_odr noundef nonnull align 8 dereferenceable(8) ptr @_ZN3gmx14LogWriteHelperaSERKNS_14LogEntryWriterE(ptr noundef nonnull align 8 dereferenceable(8) %0, ptr noundef nonnull align 8 dereferenceable(40) %1) #0 comdat align 2 {
  %3 = alloca ptr, align 8
  %4 = alloca ptr, align 8
  store ptr %0, ptr %3, align 8
  store ptr %1, ptr %4, align 8
  %5 = load ptr, ptr %3, align 8
  %6 = getelementptr inbounds %"class.gmx::LogWriteHelper", ptr %5, i32 0, i32 0
  %7 = load ptr, ptr %6, align 8
  %8 = load ptr, ptr %4, align 8
  %9 = getelementptr inbounds %"class.gmx::LogEntryWriter", ptr %8, i32 0, i32 0
  %10 = load ptr, ptr %7, align 8
  %11 = getelementptr inbounds ptr, ptr %10, i64 2
  %12 = load ptr, ptr %11, align 8
  call void %12(ptr noundef nonnull align 8 dereferenceable(8) %7, ptr noundef nonnull align 8 dereferenceable(33) %9)
  ret ptr %5
}

; Function Attrs: mustprogress uwtable
define linkonce_odr void @_ZN3gmx14LogEntryWriterC2Ev(ptr noundef nonnull align 8 dereferenceable(40) %0) unnamed_addr #0 comdat align 2 {
  %2 = alloca ptr, align 8
  store ptr %0, ptr %2, align 8
  %3 = load ptr, ptr %2, align 8
  %4 = getelementptr inbounds %"class.gmx::LogEntryWriter", ptr %3, i32 0, i32 0
  call void @_ZN3gmx8LogEntryC2Ev(ptr noundef nonnull align 8 dereferenceable(33) %4)
  ret void
}

; Function Attrs: mustprogress nounwind uwtable
define linkonce_odr noundef zeroext i1 @_ZNK3gmx14LogWriteHelpercvbEv(ptr noundef nonnull align 8 dereferenceable(8) %0) #3 comdat align 2 {
  %2 = alloca ptr, align 8
  store ptr %0, ptr %2, align 8
  %3 = load ptr, ptr %2, align 8
  %4 = getelementptr inbounds %"class.gmx::LogWriteHelper", ptr %3, i32 0, i32 0
  %5 = load ptr, ptr %4, align 8
  %6 = icmp eq ptr %5, null
  ret i1 %6
}

; Function Attrs: mustprogress uwtable
define linkonce_odr ptr @_ZNK3gmx14LogLevelHelpercvNS_14LogWriteHelperEEv(ptr noundef nonnull align 8 dereferenceable(8) %0) #0 comdat align 2 {
  %2 = alloca %"class.gmx::LogWriteHelper", align 8
  %3 = alloca ptr, align 8
  store ptr %0, ptr %3, align 8
  %4 = load ptr, ptr %3, align 8
  %5 = getelementptr inbounds %"class.gmx::LogLevelHelper", ptr %4, i32 0, i32 0
  %6 = load ptr, ptr %5, align 8
  call void @_ZN3gmx14LogWriteHelperC2EPNS_10ILogTargetE(ptr noundef nonnull align 8 dereferenceable(8) %2, ptr noundef %6)
  %7 = getelementptr inbounds %"class.gmx::LogWriteHelper", ptr %2, i32 0, i32 0
  %8 = load ptr, ptr %7, align 8
  ret ptr %8
}

; Function Attrs: mustprogress uwtable
define internal void @"_ZZ25gmx_omp_nthreads_read_envRKN3gmx8MDLoggerEPiENK3$_0clEv"(ptr noundef nonnull align 1 dereferenceable(1) %0) #0 align 2 {
  %2 = alloca ptr, align 8
  store ptr %0, ptr %2, align 8
  call void @_ZN3gmx8internal13assertHandlerEPKcS2_S2_S2_i(ptr noundef @.str.9, ptr noundef @.str.10, ptr noundef @"__PRETTY_FUNCTION__._ZZ25gmx_omp_nthreads_read_envRKN3gmx8MDLoggerEPiENK3$_0clEv", ptr noundef @.str.2, i32 noundef 182) #10
  unreachable
}

; Function Attrs: mustprogress uwtable
define void @_Z25gmx_omp_nthreads_read_envRKN3gmx8MDLoggerEPi(ptr noundef nonnull align 8 dereferenceable(40) %0, ptr noundef %1) #0 personality ptr @__gxx_personality_v0 {
  %3 = alloca ptr, align 8
  %4 = alloca ptr, align 8
  %5 = alloca ptr, align 8
  %6 = alloca i8, align 1
  %7 = alloca [4096 x i8], align 16
  %8 = alloca %class.anon, align 1
  %9 = alloca i32, align 4
  %10 = alloca %"class.std::filesystem::__cxx11::path", align 8
  %11 = alloca ptr, align 8
  %12 = alloca i32, align 4
  %13 = alloca %"class.std::filesystem::__cxx11::path", align 8
  %14 = alloca %"class.gmx::LogWriteHelper", align 8
  %15 = alloca %"class.gmx::LogEntryWriter", align 8
  store ptr %0, ptr %3, align 8
  store ptr %1, ptr %4, align 8
  %16 = load ptr, ptr %4, align 8
  %17 = load i32, ptr %16, align 4
  %18 = icmp sgt i32 %17, 0
  %19 = zext i1 %18 to i8
  store i8 %19, ptr %6, align 1
  %20 = load ptr, ptr %4, align 8
  %21 = icmp ne ptr %20, null
  br i1 %21, label %22, label %23

22:                                               ; preds = %2
  br label %24

23:                                               ; preds = %2
  call void @"_ZZ25gmx_omp_nthreads_read_envRKN3gmx8MDLoggerEPiENK3$_0clEv"(ptr noundef nonnull align 1 dereferenceable(1) %8)
  br label %24

24:                                               ; preds = %23, %22
  %25 = call ptr @getenv(ptr noundef @.str) #9
  store ptr %25, ptr %5, align 8
  %26 = icmp ne ptr %25, null
  br i1 %26, label %27, label %89

27:                                               ; preds = %24
  %28 = load ptr, ptr %5, align 8
  %29 = call i32 (ptr, ptr, ...) @__isoc99_sscanf(ptr noundef %28, ptr noundef @.str.1, ptr noundef %9) #9
  %30 = load i32, ptr %9, align 4
  %31 = icmp sle i32 %30, 0
  br i1 %31, label %32, label %39

32:                                               ; preds = %27
  call void @_ZNSt10filesystem7__cxx114pathC2IA132_cS1_EERKT_NS1_6formatE(ptr noundef nonnull align 8 dereferenceable(40) %10, ptr noundef nonnull align 1 dereferenceable(132) @.str.2, i8 noundef zeroext 2)
  %33 = load ptr, ptr %5, align 8
  invoke void (i32, ptr, i32, ptr, ...) @_Z9gmx_fataliRKNSt10filesystem7__cxx114pathEiPKcz(i32 noundef 0, ptr noundef nonnull align 8 dereferenceable(40) %10, i32 noundef 191, ptr noundef @.str.3, ptr noundef %33) #10
          to label %34 unwind label %35

34:                                               ; preds = %32
  unreachable

35:                                               ; preds = %32
  %36 = landingpad { ptr, i32 }
          cleanup
  %37 = extractvalue { ptr, i32 } %36, 0
  store ptr %37, ptr %11, align 8
  %38 = extractvalue { ptr, i32 } %36, 1
  store i32 %38, ptr %12, align 4
  call void @_ZNSt10filesystem7__cxx114pathD2Ev(ptr noundef nonnull align 8 dereferenceable(40) %10) #9
  br label %90

39:                                               ; preds = %27
  %40 = load i8, ptr %6, align 1
  %41 = trunc i8 %40 to i1
  br i1 %41, label %42, label %56

42:                                               ; preds = %39
  %43 = load i32, ptr %9, align 4
  %44 = load ptr, ptr %4, align 8
  %45 = load i32, ptr %44, align 4
  %46 = icmp ne i32 %43, %45
  br i1 %46, label %47, label %56

47:                                               ; preds = %42
  call void @_ZNSt10filesystem7__cxx114pathC2IA132_cS1_EERKT_NS1_6formatE(ptr noundef nonnull align 8 dereferenceable(40) %13, ptr noundef nonnull align 1 dereferenceable(132) @.str.2, i8 noundef zeroext 2)
  %48 = load i32, ptr %9, align 4
  %49 = load ptr, ptr %4, align 8
  %50 = load i32, ptr %49, align 4
  invoke void (i32, ptr, i32, ptr, ...) @_Z9gmx_fataliRKNSt10filesystem7__cxx114pathEiPKcz(i32 noundef 0, ptr noundef nonnull align 8 dereferenceable(40) %13, i32 noundef 196, ptr noundef @.str.4, i32 noundef %48, i32 noundef %50) #10
          to label %51 unwind label %52

51:                                               ; preds = %47
  unreachable

52:                                               ; preds = %47
  %53 = landingpad { ptr, i32 }
          cleanup
  %54 = extractvalue { ptr, i32 } %53, 0
  store ptr %54, ptr %11, align 8
  %55 = extractvalue { ptr, i32 } %53, 1
  store i32 %55, ptr %12, align 4
  call void @_ZNSt10filesystem7__cxx114pathD2Ev(ptr noundef nonnull align 8 dereferenceable(40) %13) #9
  br label %90

56:                                               ; preds = %42, %39
  %57 = load i32, ptr %9, align 4
  %58 = load ptr, ptr %4, align 8
  store i32 %57, ptr %58, align 4
  %59 = getelementptr inbounds [4096 x i8], ptr %7, i64 0, i64 0
  %60 = load i32, ptr %9, align 4
  %61 = load i8, ptr %6, align 1
  %62 = trunc i8 %61 to i1
  %63 = select i1 %62, ptr @.str.6, ptr @.str.7
  %64 = call i32 (ptr, ptr, ...) @sprintf(ptr noundef %59, ptr noundef @.str.5, i32 noundef %60, ptr noundef %63) #9
  %65 = load ptr, ptr %3, align 8
  %66 = getelementptr inbounds %"class.gmx::MDLogger", ptr %65, i32 0, i32 4
  %67 = call ptr @_ZNK3gmx14LogLevelHelpercvNS_14LogWriteHelperEEv(ptr noundef nonnull align 8 dereferenceable(8) %66)
  %68 = getelementptr inbounds %"class.gmx::LogWriteHelper", ptr %14, i32 0, i32 0
  store ptr %67, ptr %68, align 8
  %69 = call noundef zeroext i1 @_ZNK3gmx14LogWriteHelpercvbEv(ptr noundef nonnull align 8 dereferenceable(8) %14)
  br i1 %69, label %70, label %71

70:                                               ; preds = %56
  br label %81

71:                                               ; preds = %56
  call void @llvm.memset.p0.i64(ptr align 8 %15, i8 0, i64 40, i1 false)
  call void @_ZN3gmx14LogEntryWriterC2Ev(ptr noundef nonnull align 8 dereferenceable(40) %15)
  %72 = getelementptr inbounds [4096 x i8], ptr %7, i64 0, i64 0
  %73 = invoke noundef nonnull align 8 dereferenceable(40) ptr (ptr, ptr, ...) @_ZN3gmx14LogEntryWriter19appendTextFormattedEPKcz(ptr noundef nonnull align 8 dereferenceable(40) %15, ptr noundef @.str.8, ptr noundef %72)
          to label %74 unwind label %77

74:                                               ; preds = %71
  %75 = invoke noundef nonnull align 8 dereferenceable(8) ptr @_ZN3gmx14LogWriteHelperaSERKNS_14LogEntryWriterE(ptr noundef nonnull align 8 dereferenceable(8) %14, ptr noundef nonnull align 8 dereferenceable(40) %73)
          to label %76 unwind label %77

76:                                               ; preds = %74
  call void @_ZN3gmx14LogEntryWriterD2Ev(ptr noundef nonnull align 8 dereferenceable(40) %15) #9
  br label %81

77:                                               ; preds = %74, %71
  %78 = landingpad { ptr, i32 }
          cleanup
  %79 = extractvalue { ptr, i32 } %78, 0
  store ptr %79, ptr %11, align 8
  %80 = extractvalue { ptr, i32 } %78, 1
  store i32 %80, ptr %12, align 4
  call void @_ZN3gmx14LogEntryWriterD2Ev(ptr noundef nonnull align 8 dereferenceable(40) %15) #9
  br label %90

81:                                               ; preds = %76, %70
  %82 = load ptr, ptr @debug, align 8
  %83 = icmp ne ptr %82, null
  br i1 %83, label %84, label %88

84:                                               ; preds = %81
  %85 = getelementptr inbounds [4096 x i8], ptr %7, i64 0, i64 0
  %86 = load ptr, ptr @debug, align 8
  %87 = call i32 @fputs(ptr noundef %85, ptr noundef %86)
  br label %88

88:                                               ; preds = %84, %81
  br label %89

89:                                               ; preds = %88, %24
  ret void

90:                                               ; preds = %77, %52, %35
  %91 = load ptr, ptr %11, align 8
  %92 = load i32, ptr %12, align 4
  %93 = insertvalue { ptr, i32 } poison, ptr %91, 0
  %94 = insertvalue { ptr, i32 } %93, i32 %92, 1
  resume { ptr, i32 } %94
}