; Function Attrs: mustprogress uwtable
define void @_Z25gmx_omp_nthreads_read_envRKN3gmx8MDLoggerEPi(ptr nocapture noundef nonnull readonly align 8 dereferenceable(40) %0, ptr nocapture noundef %1) local_unnamed_addr #0 personality ptr @__gxx_personality_v0 {
  %3 = alloca [4096 x i8], align 16
  %4 = alloca i32, align 4
  %5 = alloca %"class.std::filesystem::__cxx11::path", align 8
  %6 = alloca %"class.std::filesystem::__cxx11::path", align 8
  %7 = alloca %"class.gmx::LogEntryWriter", align 8
  %8 = load i32, ptr %1, align 4
  %9 = icmp sgt i32 %8, 0
  %10 = tail call ptr @getenv(ptr noundef nonnull @.str) #12
  %.not = icmp eq ptr %10, null
  br i1 %.not, label %47, label %11

11:                                               ; preds = %2
  %12 = call i32 (ptr, ptr, ...) @__isoc99_sscanf(ptr noundef nonnull %10, ptr noundef nonnull @.str.1, ptr noundef nonnull %4) #12
  %13 = load i32, ptr %4, align 4
  %14 = icmp slt i32 %13, 1
  br i1 %14, label %15, label %19

15:                                               ; preds = %11
  call void @_ZNSt10filesystem7__cxx114pathC2IA132_cS1_EERKT_NS1_6formatE(ptr noundef nonnull align 8 dereferenceable(40) %5, ptr noundef nonnull align 1 dereferenceable(132) @.str.2, i8 noundef zeroext 2)
  invoke void (i32, ptr, i32, ptr, ...) @_Z9gmx_fataliRKNSt10filesystem7__cxx114pathEiPKcz(i32 noundef 0, ptr noundef nonnull align 8 dereferenceable(40) %5, i32 noundef 191, ptr noundef nonnull @.str.3, ptr noundef nonnull %10) #13
          to label %16 unwind label %17

16:                                               ; preds = %15
  unreachable

17:                                               ; preds = %15
  %18 = landingpad { ptr, i32 }
          cleanup
  call void @_ZNSt10filesystem7__cxx114pathD2Ev(ptr noundef nonnull align 8 dereferenceable(40) %5) #12
  br label %48

19:                                               ; preds = %11
  br i1 %9, label %20, label %28

20:                                               ; preds = %19
  %21 = load i32, ptr %1, align 4
  %.not15 = icmp eq i32 %13, %21
  br i1 %.not15, label %28, label %22

22:                                               ; preds = %20
  call void @_ZNSt10filesystem7__cxx114pathC2IA132_cS1_EERKT_NS1_6formatE(ptr noundef nonnull align 8 dereferenceable(40) %6, ptr noundef nonnull align 1 dereferenceable(132) @.str.2, i8 noundef zeroext 2)
  %23 = load i32, ptr %4, align 4
  %24 = load i32, ptr %1, align 4
  invoke void (i32, ptr, i32, ptr, ...) @_Z9gmx_fataliRKNSt10filesystem7__cxx114pathEiPKcz(i32 noundef 0, ptr noundef nonnull align 8 dereferenceable(40) %6, i32 noundef 196, ptr noundef nonnull @.str.4, i32 noundef %23, i32 noundef %24) #13
          to label %25 unwind label %26

25:                                               ; preds = %22
  unreachable

26:                                               ; preds = %22
  %27 = landingpad { ptr, i32 }
          cleanup
  call void @_ZNSt10filesystem7__cxx114pathD2Ev(ptr noundef nonnull align 8 dereferenceable(40) %6) #12
  br label %48

28:                                               ; preds = %20, %19
  %29 = phi ptr [ @.str.6, %20 ], [ @.str.7, %19 ]
  store i32 %13, ptr %1, align 4
  %30 = call i32 (ptr, ptr, ...) @sprintf(ptr noundef nonnull dereferenceable(1) %3, ptr noundef nonnull dereferenceable(1) @.str.5, i32 noundef %13, ptr noundef nonnull %29) #12
  %31 = getelementptr inbounds i8, ptr %0, i64 32
  %32 = load ptr, ptr %31, align 8
  %33 = icmp eq ptr %32, null
  br i1 %33, label %43, label %34

34:                                               ; preds = %28
  call void @llvm.memset.p0.i64(ptr noundef nonnull align 8 dereferenceable(40) %7, i8 0, i64 40, i1 false)
  call void @_ZNSt7__cxx1112basic_stringIcSt11char_traitsIcESaIcEEC1Ev(ptr noundef nonnull align 8 dereferenceable(32) %7) #12
  %35 = getelementptr inbounds i8, ptr %7, i64 32
  store i8 0, ptr %35, align 8
  %36 = invoke noundef nonnull align 8 dereferenceable(40) ptr (ptr, ptr, ...) @_ZN3gmx14LogEntryWriter19appendTextFormattedEPKcz(ptr noundef nonnull align 8 dereferenceable(40) %7, ptr noundef nonnull @.str.8, ptr noundef nonnull %3)
          to label %37 unwind label %41

37:                                               ; preds = %34
  %38 = load ptr, ptr %32, align 8
  %39 = getelementptr inbounds i8, ptr %38, i64 16
  %40 = load ptr, ptr %39, align 8
  invoke void %40(ptr noundef nonnull align 8 dereferenceable(8) %32, ptr noundef nonnull align 8 dereferenceable(33) %36)
          to label %_ZN3gmx14LogWriteHelperaSERKNS_14LogEntryWriterE.exit unwind label %41

_ZN3gmx14LogWriteHelperaSERKNS_14LogEntryWriterE.exit: ; preds = %37
  call void @_ZNSt7__cxx1112basic_stringIcSt11char_traitsIcESaIcEED1Ev(ptr noundef nonnull align 8 dereferenceable(32) %7) #12
  br label %43

41:                                               ; preds = %37, %34
  %42 = landingpad { ptr, i32 }
          cleanup
  call void @_ZNSt7__cxx1112basic_stringIcSt11char_traitsIcESaIcEED1Ev(ptr noundef nonnull align 8 dereferenceable(32) %7) #12
  br label %48

43:                                               ; preds = %28, %_ZN3gmx14LogWriteHelperaSERKNS_14LogEntryWriterE.exit
  %44 = load ptr, ptr @debug, align 8
  %.not16 = icmp eq ptr %44, null
  br i1 %.not16, label %47, label %45

45:                                               ; preds = %43
  %46 = call i32 @fputs(ptr noundef nonnull %3, ptr noundef nonnull %44)
  br label %47

47:                                               ; preds = %43, %45, %2
  ret void

48:                                               ; preds = %41, %26, %17
  %.pn = phi { ptr, i32 } [ %18, %17 ], [ %27, %26 ], [ %42, %41 ]
  resume { ptr, i32 } %.pn
}